target datalayout = "e-m:e-p270:32:32-p271:32:32-p272:64:64-i64:64-i128:128-f80:128-n8:16:32:64-S128"
target triple = "x86_64-pc-linux-gnu"

%struct.H5C_cache_entry_t = type { ptr, i64, i64, ptr, i8, ptr, i8, i8, i8, i8, i32, i8, i8, i8, i8, i8, i32, ptr, i32, i32, i32, i32, i32, i8, i8, ptr, ptr, ptr, ptr, ptr, ptr, i8, i32, i8, i64, ptr, i64, i64, i32, i8, i32, i32, i8, ptr, ptr, ptr }
%struct.H5EA_hdr_t = type { %struct.H5C_cache_entry_t, %struct.H5EA_create_t, i64, %struct.H5EA_stat_t, %struct.anon.1, i64, i64, i64, ptr, i64, i8, i64, i64, i8, i64, ptr, i64, ptr, i8, ptr, ptr }
%struct.H5EA_create_t = type { ptr, i8, i8, i8, i8, i8, i8 }
%struct.H5EA_stat_t = type { %struct.anon, %struct.anon.0 }
%struct.anon = type { i64, i64, i64 }
%struct.anon.0 = type { i64, i64, i64, i64, i64, i64 }
%struct.anon.1 = type { i64, ptr }
%struct.H5EA_class_t = type { i32, ptr, i64, ptr, ptr, ptr, ptr, ptr, ptr, ptr, ptr }
%struct.H5EA_sblock_t = type { %struct.H5C_cache_entry_t, i64, ptr, ptr, ptr, i64, i64, i8, ptr, ptr, i32, i64, i64, i64, i64, i64 }

@H5EA_init_g = external global i8, align 1
@H5_libterm_g = external global i8, align 1
@.str.31 = private unnamed_addr constant [5 x i8] c"EASB\00", align 1

; Function Attrs: nounwind uwtable
define internal i32 @H5EA__cache_sblock_serialize(ptr noundef %0, ptr noundef %1, i64 noundef %2, ptr noundef %3) #0 {
  %5 = alloca ptr, align 8
  %6 = alloca ptr, align 8
  %7 = alloca i64, align 8
  %8 = alloca ptr, align 8
  %9 = alloca ptr, align 8
  %10 = alloca ptr, align 8
  %11 = alloca i32, align 4
  %12 = alloca i64, align 8
  %13 = alloca i64, align 8
  %14 = alloca i64, align 8
  %15 = alloca ptr, align 8
  %16 = alloca i64, align 8
  store ptr %0, ptr %5, align 8, !tbaa !81
  store ptr %1, ptr %6, align 8, !tbaa !3
  store i64 %2, ptr %7, align 8, !tbaa !19
  store ptr %3, ptr %8, align 8, !tbaa !3
  call void @llvm.lifetime.start.p0(i64 8, ptr %9) #8
  %17 = load ptr, ptr %8, align 8, !tbaa !3
  store ptr %17, ptr %9, align 8, !tbaa !132
  call void @llvm.lifetime.start.p0(i64 8, ptr %10) #8
  %18 = load ptr, ptr %6, align 8, !tbaa !3
  store ptr %18, ptr %10, align 8, !tbaa !20
  call void @llvm.lifetime.start.p0(i64 4, ptr %11) #8
  call void @llvm.lifetime.start.p0(i64 8, ptr %12) #8
  %19 = load i8, ptr @H5EA_init_g, align 1, !tbaa !11, !range !13, !noundef !14
  %20 = trunc i8 %19 to i1
  br i1 %20, label %25, label %21

21:                                               ; preds = %4
  %22 = load i8, ptr @H5_libterm_g, align 1, !tbaa !11, !range !13, !noundef !14
  %23 = trunc i8 %22 to i1
  %24 = xor i1 %23, true
  br label %25

25:                                               ; preds = %21, %4
  %26 = phi i1 [ true, %4 ], [ %24, %21 ]
  %27 = xor i1 %26, true
  %28 = xor i1 %27, true
  %29 = zext i1 %28 to i32
  %30 = sext i32 %29 to i64
  %31 = call i64 @llvm.expect.i64(i64 %30, i64 1)
  %32 = icmp ne i64 %31, 0
  br i1 %32, label %33, label %169

33:                                               ; preds = %25
  %34 = load ptr, ptr %10, align 8, !tbaa !20
  call void @llvm.memcpy.p0.p0.i64(ptr align 1 %34, ptr align 1 @.str.31, i64 4, i1 false)
  %35 = load ptr, ptr %10, align 8, !tbaa !20
  %36 = getelementptr inbounds i8, ptr %35, i64 4
  store ptr %36, ptr %10, align 8, !tbaa !20
  %37 = load ptr, ptr %10, align 8, !tbaa !20
  %38 = getelementptr inbounds nuw i8, ptr %37, i32 1
  store ptr %38, ptr %10, align 8, !tbaa !20
  store i8 0, ptr %37, align 1, !tbaa !46
  %39 = load ptr, ptr %9, align 8, !tbaa !132
  %40 = getelementptr inbounds nuw %struct.H5EA_sblock_t, ptr %39, i32 0, i32 4
  %41 = load ptr, ptr %40, align 8, !tbaa !119
  %42 = getelementptr inbounds nuw %struct.H5EA_hdr_t, ptr %41, i32 0, i32 1
  %43 = getelementptr inbounds nuw %struct.H5EA_create_t, ptr %42, i32 0, i32 0
  %44 = load ptr, ptr %43, align 8, !tbaa !48
  %45 = getelementptr inbounds nuw %struct.H5EA_class_t, ptr %44, i32 0, i32 0
  %46 = load i32, ptr %45, align 8, !tbaa !82
  %47 = trunc i32 %46 to i8
  %48 = load ptr, ptr %10, align 8, !tbaa !20
  %49 = getelementptr inbounds nuw i8, ptr %48, i32 1
  store ptr %49, ptr %10, align 8, !tbaa !20
  store i8 %47, ptr %48, align 1, !tbaa !46
  %50 = load ptr, ptr %5, align 8, !tbaa !81
  %51 = load ptr, ptr %9, align 8, !tbaa !132
  %52 = getelementptr inbounds nuw %struct.H5EA_sblock_t, ptr %51, i32 0, i32 4
  %53 = load ptr, ptr %52, align 8, !tbaa !119
  %54 = getelementptr inbounds nuw %struct.H5EA_hdr_t, ptr %53, i32 0, i32 6
  %55 = load i64, ptr %54, align 8, !tbaa !29
  call void @H5F_addr_encode(ptr noundef %50, ptr noundef %10, i64 noundef %55)
  br label %56

56:                                               ; preds = %33
  call void @llvm.lifetime.start.p0(i64 8, ptr %13) #8
  %57 = load ptr, ptr %9, align 8, !tbaa !132
  %58 = getelementptr inbounds nuw %struct.H5EA_sblock_t, ptr %57, i32 0, i32 1
  %59 = load i64, ptr %58, align 8, !tbaa !137
  store i64 %59, ptr %13, align 8, !tbaa !19
  call void @llvm.lifetime.start.p0(i64 8, ptr %14) #8
  call void @llvm.lifetime.start.p0(i64 8, ptr %15) #8
  %60 = load ptr, ptr %10, align 8, !tbaa !20
  store ptr %60, ptr %15, align 8, !tbaa !20
  store i64 0, ptr %14, align 8, !tbaa !19
  br label %61

61:                                               ; preds = %76, %56
  %62 = load i64, ptr %14, align 8, !tbaa !19
  %63 = load ptr, ptr %9, align 8, !tbaa !132
  %64 = getelementptr inbounds nuw %struct.H5EA_sblock_t, ptr %63, i32 0, i32 4
  %65 = load ptr, ptr %64, align 8, !tbaa !119
  %66 = getelementptr inbounds nuw %struct.H5EA_hdr_t, ptr %65, i32 0, i32 13
  %67 = load i8, ptr %66, align 8, !tbaa !131
  %68 = zext i8 %67 to i64
  %69 = icmp ult i64 %62, %68
  br i1 %69, label %70, label %81

70:                                               ; preds = %61
  %71 = load i64, ptr %13, align 8, !tbaa !19
  %72 = and i64 %71, 255
  %73 = trunc i64 %72 to i8
  %74 = load ptr, ptr %15, align 8, !tbaa !20
  %75 = getelementptr inbounds nuw i8, ptr %74, i32 1
  store ptr %75, ptr %15, align 8, !tbaa !20
  store i8 %73, ptr %74, align 1, !tbaa !46
  br label %76

76:                                               ; preds = %70
  %77 = load i64, ptr %14, align 8, !tbaa !19
  %78 = add i64 %77, 1
  store i64 %78, ptr %14, align 8, !tbaa !19
  %79 = load i64, ptr %13, align 8, !tbaa !19
  %80 = lshr i64 %79, 8
  store i64 %80, ptr %13, align 8, !tbaa !19
  br label %61, !llvm.loop !143

81:                                               ; preds = %61
  %82 = load ptr, ptr %10, align 8, !tbaa !20
  %83 = load ptr, ptr %9, align 8, !tbaa !132
  %84 = getelementptr inbounds nuw %struct.H5EA_sblock_t, ptr %83, i32 0, i32 4
  %85 = load ptr, ptr %84, align 8, !tbaa !119
  %86 = getelementptr inbounds nuw %struct.H5EA_hdr_t, ptr %85, i32 0, i32 13
  %87 = load i8, ptr %86, align 8, !tbaa !131
  %88 = zext i8 %87 to i32
  %89 = sext i32 %88 to i64
  %90 = getelementptr inbounds i8, ptr %82, i64 %89
  store ptr %90, ptr %10, align 8, !tbaa !20
  call void @llvm.lifetime.end.p0(i64 8, ptr %15) #8
  call void @llvm.lifetime.end.p0(i64 8, ptr %14) #8
  call void @llvm.lifetime.end.p0(i64 8, ptr %13) #8
  br label %91

91:                                               ; preds = %81
  br label %92

92:                                               ; preds = %91
  %93 = load ptr, ptr %9, align 8, !tbaa !132
  %94 = getelementptr inbounds nuw %struct.H5EA_sblock_t, ptr %93, i32 0, i32 13
  %95 = load i64, ptr %94, align 8, !tbaa !129
  %96 = icmp ugt i64 %95, 0
  br i1 %96, label %97, label %113

97:                                               ; preds = %92
  call void @llvm.lifetime.start.p0(i64 8, ptr %16) #8
  %98 = load ptr, ptr %9, align 8, !tbaa !132
  %99 = getelementptr inbounds nuw %struct.H5EA_sblock_t, ptr %98, i32 0, i32 11
  %100 = load i64, ptr %99, align 8, !tbaa !125
  %101 = load ptr, ptr %9, align 8, !tbaa !132
  %102 = getelementptr inbounds nuw %struct.H5EA_sblock_t, ptr %101, i32 0, i32 14
  %103 = load i64, ptr %102, align 8, !tbaa !130
  %104 = mul i64 %100, %103
  store i64 %104, ptr %16, align 8, !tbaa !19
  %105 = load ptr, ptr %10, align 8, !tbaa !20
  %106 = load ptr, ptr %9, align 8, !tbaa !132
  %107 = getelementptr inbounds nuw %struct.H5EA_sblock_t, ptr %106, i32 0, i32 3
  %108 = load ptr, ptr %107, align 8, !tbaa !139
  %109 = load i64, ptr %16, align 8, !tbaa !19
  call void @llvm.memcpy.p0.p0.i64(ptr align 1 %105, ptr align 1 %108, i64 %109, i1 false)
  %110 = load i64, ptr %16, align 8, !tbaa !19
  %111 = load ptr, ptr %10, align 8, !tbaa !20
  %112 = getelementptr inbounds nuw i8, ptr %111, i64 %110
  store ptr %112, ptr %10, align 8, !tbaa !20
  call void @llvm.lifetime.end.p0(i64 8, ptr %16) #8
  br label %113

113:                                              ; preds = %97, %92
  store i64 0, ptr %12, align 8, !tbaa !19
  br label %114

114:                                              ; preds = %128, %113
  %115 = load i64, ptr %12, align 8, !tbaa !19
  %116 = load ptr, ptr %9, align 8, !tbaa !132
  %117 = getelementptr inbounds nuw %struct.H5EA_sblock_t, ptr %116, i32 0, i32 11
  %118 = load i64, ptr %117, align 8, !tbaa !125
  %119 = icmp ult i64 %115, %118
  br i1 %119, label %120, label %131

120:                                              ; preds = %114
  %121 = load ptr, ptr %5, align 8, !tbaa !81
  %122 = load ptr, ptr %9, align 8, !tbaa !132
  %123 = getelementptr inbounds nuw %struct.H5EA_sblock_t, ptr %122, i32 0, i32 2
  %124 = load ptr, ptr %123, align 8, !tbaa !140
  %125 = load i64, ptr %12, align 8, !tbaa !19
  %126 = getelementptr inbounds nuw i64, ptr %124, i64 %125
  %127 = load i64, ptr %126, align 8, !tbaa !19
  call void @H5F_addr_encode(ptr noundef %121, ptr noundef %10, i64 noundef %127)
  br label %128

128:                                              ; preds = %120
  %129 = load i64, ptr %12, align 8, !tbaa !19
  %130 = add i64 %129, 1
  store i64 %130, ptr %12, align 8, !tbaa !19
  br label %114, !llvm.loop !144

131:                                              ; preds = %114
  %132 = load ptr, ptr %6, align 8, !tbaa !3
  %133 = load ptr, ptr %10, align 8, !tbaa !20
  %134 = load ptr, ptr %6, align 8, !tbaa !3
  %135 = ptrtoint ptr %133 to i64
  %136 = ptrtoint ptr %134 to i64
  %137 = sub i64 %135, %136
  %138 = call i32 @H5_checksum_metadata(ptr noundef %132, i64 noundef %137, i32 noundef 0)
  store i32 %138, ptr %11, align 4, !tbaa !22
  br label %139

139:                                              ; preds = %131
  %140 = load i32, ptr %11, align 4, !tbaa !22
  %141 = and i32 %140, 255
  %142 = trunc i32 %141 to i8
  %143 = load ptr, ptr %10, align 8, !tbaa !20
  store i8 %142, ptr %143, align 1, !tbaa !46
  %144 = load ptr, ptr %10, align 8, !tbaa !20
  %145 = getelementptr inbounds nuw i8, ptr %144, i32 1
  store ptr %145, ptr %10, align 8, !tbaa !20
  %146 = load i32, ptr %11, align 4, !tbaa !22
  %147 = lshr i32 %146, 8
  %148 = and i32 %147, 255
  %149 = trunc i32 %148 to i8
  %150 = load ptr, ptr %10, align 8, !tbaa !20
  store i8 %149, ptr %150, align 1, !tbaa !46
  %151 = load ptr, ptr %10, align 8, !tbaa !20
  %152 = getelementptr inbounds nuw i8, ptr %151, i32 1
  store ptr %152, ptr %10, align 8, !tbaa !20
  %153 = load i32, ptr %11, align 4, !tbaa !22
  %154 = lshr i32 %153, 16
  %155 = and i32 %154, 255
  %156 = trunc i32 %155 to i8
  %157 = load ptr, ptr %10, align 8, !tbaa !20
  store i8 %156, ptr %157, align 1, !tbaa !46
  %158 = load ptr, ptr %10, align 8, !tbaa !20
  %159 = getelementptr inbounds nuw i8, ptr %158, i32 1
  store ptr %159, ptr %10, align 8, !tbaa !20
  %160 = load i32, ptr %11, align 4, !tbaa !22
  %161 = lshr i32 %160, 24
  %162 = and i32 %161, 255
  %163 = trunc i32 %162 to i8
  %164 = load ptr, ptr %10, align 8, !tbaa !20
  store i8 %163, ptr %164, align 1, !tbaa !46
  %165 = load ptr, ptr %10, align 8, !tbaa !20
  %166 = getelementptr inbounds nuw i8, ptr %165, i32 1
  store ptr %166, ptr %10, align 8, !tbaa !20
  br label %167

167:                                              ; preds = %139
  br label %168

168:                                              ; preds = %167
  br label %169

169:                                              ; preds = %168, %25
  call void @llvm.lifetime.end.p0(i64 8, ptr %12) #8
  call void @llvm.lifetime.end.p0(i64 4, ptr %11) #8
  call void @llvm.lifetime.end.p0(i64 8, ptr %10) #8
  call void @llvm.lifetime.end.p0(i64 8, ptr %9) #8
  ret i32 0
}