; Function Attrs: nounwind uwtable
define internal noundef i32 @H5EA__cache_sblock_serialize(ptr noundef %0, ptr noundef %1, i64 %2, ptr noundef readonly captures(none) %3) #0 {
  %5 = alloca ptr, align 8
  call void @llvm.lifetime.start.p0(i64 8, ptr nonnull %5) #6
  %6 = load i8, ptr @H5EA_init_g, align 1, !tbaa !3, !range !7, !noundef !8
  %7 = trunc nuw i8 %6 to i1
  %8 = load i8, ptr @H5_libterm_g, align 1, !range !7
  %9 = trunc nuw i8 %8 to i1
  %10 = xor i1 %9, true
  %11 = select i1 %7, i1 true, i1 %10
  br i1 %11, label %12, label %85, !prof !9

12:                                               ; preds = %4
  store i32 1112752453, ptr %1, align 1
  %13 = getelementptr inbounds nuw i8, ptr %1, i64 4
  %14 = getelementptr inbounds nuw i8, ptr %1, i64 5
  store i8 0, ptr %13, align 1, !tbaa !39
  %15 = getelementptr inbounds nuw i8, ptr %3, i64 272
  %16 = load ptr, ptr %15, align 8, !tbaa !122
  %17 = getelementptr inbounds nuw i8, ptr %16, i64 248
  %18 = load ptr, ptr %17, align 8, !tbaa !41
  %19 = load i32, ptr %18, align 8, !tbaa !69
  %20 = trunc i32 %19 to i8
  %21 = getelementptr inbounds nuw i8, ptr %1, i64 6
  store ptr %21, ptr %5, align 8, !tbaa !18
  store i8 %20, ptr %14, align 1, !tbaa !39
  %22 = load ptr, ptr %15, align 8, !tbaa !122
  %23 = getelementptr inbounds nuw i8, ptr %22, i64 368
  %24 = load i64, ptr %23, align 8, !tbaa !21
  call void @H5F_addr_encode(ptr noundef %0, ptr noundef nonnull %5, i64 noundef %24) #6
  %25 = load ptr, ptr %5, align 8, !tbaa !18
  %26 = load ptr, ptr %15, align 8, !tbaa !122
  %27 = getelementptr inbounds nuw i8, ptr %26, i64 424
  %28 = load i8, ptr %27, align 8, !tbaa !108
  %.not40 = icmp eq i8 %28, 0
  br i1 %.not40, label %._crit_edge, label %.lr.ph.preheader

.lr.ph.preheader:                                 ; preds = %12
  %29 = getelementptr inbounds nuw i8, ptr %3, i64 248
  %30 = load i64, ptr %29, align 8, !tbaa !113
  br label %.lr.ph

.lr.ph:                                           ; preds = %.lr.ph.preheader, %.lr.ph
  %.03035 = phi ptr [ %32, %.lr.ph ], [ %25, %.lr.ph.preheader ]
  %.03134 = phi i64 [ %33, %.lr.ph ], [ 0, %.lr.ph.preheader ]
  %.03233 = phi i64 [ %34, %.lr.ph ], [ %30, %.lr.ph.preheader ]
  %31 = trunc i64 %.03233 to i8
  %32 = getelementptr inbounds nuw i8, ptr %.03035, i64 1
  store i8 %31, ptr %.03035, align 1, !tbaa !39
  %33 = add nuw nsw i64 %.03134, 1
  %34 = lshr i64 %.03233, 8
  %35 = load ptr, ptr %15, align 8, !tbaa !122
  %36 = getelementptr inbounds nuw i8, ptr %35, i64 424
  %37 = load i8, ptr %36, align 8, !tbaa !108
  %38 = zext i8 %37 to i64
  %39 = icmp samesign ult i64 %33, %38
  br i1 %39, label %.lr.ph, label %._crit_edge.loopexit, !llvm.loop !123

._crit_edge.loopexit:                             ; preds = %.lr.ph
  %.pre = load ptr, ptr %5, align 8, !tbaa !18
  br label %._crit_edge

._crit_edge:                                      ; preds = %._crit_edge.loopexit, %12
  %40 = phi ptr [ %25, %12 ], [ %.pre, %._crit_edge.loopexit ]
  %.lcssa = phi i64 [ 0, %12 ], [ %38, %._crit_edge.loopexit ]
  %41 = getelementptr inbounds nuw i8, ptr %40, i64 %.lcssa
  store ptr %41, ptr %5, align 8, !tbaa !18
  %42 = getelementptr inbounds nuw i8, ptr %3, i64 344
  %43 = load i64, ptr %42, align 8, !tbaa !115
  %.not = icmp eq i64 %43, 0
  br i1 %.not, label %54, label %44

44:                                               ; preds = %._crit_edge
  %45 = getelementptr inbounds nuw i8, ptr %3, i64 328
  %46 = load i64, ptr %45, align 8, !tbaa !116
  %47 = getelementptr inbounds nuw i8, ptr %3, i64 352
  %48 = load i64, ptr %47, align 8, !tbaa !117
  %49 = mul i64 %48, %46
  %50 = getelementptr inbounds nuw i8, ptr %3, i64 264
  %51 = load ptr, ptr %50, align 8, !tbaa !118
  call void @llvm.memcpy.p0.p0.i64(ptr align 1 %41, ptr align 1 %51, i64 %49, i1 false)
  %52 = load ptr, ptr %5, align 8, !tbaa !18
  %53 = getelementptr inbounds nuw i8, ptr %52, i64 %49
  store ptr %53, ptr %5, align 8, !tbaa !18
  br label %54

54:                                               ; preds = %44, %._crit_edge
  %55 = phi ptr [ %53, %44 ], [ %41, %._crit_edge ]
  %56 = getelementptr inbounds nuw i8, ptr %3, i64 328
  %57 = load i64, ptr %56, align 8, !tbaa !116
  %.not41 = icmp eq i64 %57, 0
  br i1 %.not41, label %._crit_edge39, label %.lr.ph38

.lr.ph38:                                         ; preds = %54
  %58 = getelementptr inbounds nuw i8, ptr %3, i64 256
  br label %59

59:                                               ; preds = %.lr.ph38, %59
  %.036 = phi i64 [ 0, %.lr.ph38 ], [ %63, %59 ]
  %60 = load ptr, ptr %58, align 8, !tbaa !119
  %61 = getelementptr inbounds nuw i64, ptr %60, i64 %.036
  %62 = load i64, ptr %61, align 8, !tbaa !15
  call void @H5F_addr_encode(ptr noundef %0, ptr noundef nonnull %5, i64 noundef %62) #6
  %63 = add nuw i64 %.036, 1
  %64 = load i64, ptr %56, align 8, !tbaa !116
  %65 = icmp ult i64 %63, %64
  br i1 %65, label %59, label %._crit_edge39.loopexit, !llvm.loop !124

._crit_edge39.loopexit:                           ; preds = %59
  %.pre43 = load ptr, ptr %5, align 8, !tbaa !18
  br label %._crit_edge39

._crit_edge39:                                    ; preds = %._crit_edge39.loopexit, %54
  %66 = phi ptr [ %.pre43, %._crit_edge39.loopexit ], [ %55, %54 ]
  %67 = ptrtoint ptr %66 to i64
  %68 = ptrtoint ptr %1 to i64
  %69 = sub i64 %67, %68
  %70 = call i32 @H5_checksum_metadata(ptr noundef nonnull %1, i64 noundef %69, i32 noundef 0) #6
  %71 = trunc i32 %70 to i8
  %72 = load ptr, ptr %5, align 8, !tbaa !18
  store i8 %71, ptr %72, align 1, !tbaa !39
  %73 = load ptr, ptr %5, align 8, !tbaa !18
  %74 = getelementptr inbounds nuw i8, ptr %73, i64 1
  store ptr %74, ptr %5, align 8, !tbaa !18
  %75 = lshr i32 %70, 8
  %76 = trunc i32 %75 to i8
  store i8 %76, ptr %74, align 1, !tbaa !39
  %77 = load ptr, ptr %5, align 8, !tbaa !18
  %78 = getelementptr inbounds nuw i8, ptr %77, i64 1
  store ptr %78, ptr %5, align 8, !tbaa !18
  %79 = lshr i32 %70, 16
  %80 = trunc i32 %79 to i8
  store i8 %80, ptr %78, align 1, !tbaa !39
  %81 = load ptr, ptr %5, align 8, !tbaa !18
  %82 = getelementptr inbounds nuw i8, ptr %81, i64 1
  %83 = lshr i32 %70, 24
  %84 = trunc nuw i32 %83 to i8
  store i8 %84, ptr %82, align 1, !tbaa !39
  br label %85

85:                                               ; preds = %._crit_edge39, %4
  call void @llvm.lifetime.end.p0(i64 8, ptr nonnull %5) #6
  ret i32 0
}